; Function Attrs: mustprogress uwtable
define internal void @_ZN12_GLOBAL__N_147HyperscanArgChecks_DeserializeDatabaseNoDb_Test8TestBodyEv(ptr nonnull readnone align 8 captures(none) %0) unnamed_addr #7 align 2 personality ptr @__gxx_personality_v0 {
  %2 = alloca ptr, align 8
  %3 = alloca i64, align 8
  %4 = alloca i32, align 4
  %5 = alloca %"class.testing::AssertionResult", align 8
  %6 = alloca i32, align 4
  %7 = alloca %"class.testing::Message", align 8
  %8 = alloca %"class.testing::internal::AssertHelper", align 8
  call void @llvm.lifetime.start.p0(i64 8, ptr nonnull %2) #27
  store ptr null, ptr %2, align 8
  call void @llvm.lifetime.start.p0(i64 8, ptr nonnull %3) #27
  store i64 0, ptr %3, align 8
  call fastcc void @_ZN12_GLOBAL__N_122makeSerializedDatabaseEPPcPm(ptr noundef %2, ptr noundef %3)
  call void @llvm.lifetime.start.p0(i64 4, ptr nonnull %4) #27
  %9 = load ptr, ptr %2, align 8
  %10 = load i64, ptr %3, align 8
  %11 = call i32 @hs_deserialize_database(ptr noundef %9, i64 noundef %10, ptr noundef null)
  store i32 %11, ptr %4, align 4
  call void @llvm.lifetime.start.p0(i64 16, ptr nonnull %5) #27
  call void @llvm.lifetime.start.p0(i64 4, ptr nonnull %6) #27
  store i32 -1, ptr %6, align 4
  call void @_ZN7testing8internal11CmpHelperEQIiiEENS_15AssertionResultEPKcS4_RKT_RKT0_(ptr dead_on_unwind nonnull writable sret(%"class.testing::AssertionResult") align 8 %5, ptr noundef nonnull @.str.324, ptr noundef nonnull @.str.302, ptr noundef nonnull align 4 dereferenceable(4) %6, ptr noundef nonnull align 4 dereferenceable(4) %4)
  call void @llvm.lifetime.end.p0(i64 4, ptr nonnull %6) #27
  %12 = load i8, ptr %5, align 8, !range !14, !noundef !15
  %13 = trunc nuw i8 %12 to i1
  br i1 %13, label %.critedge, label %14

14:                                               ; preds = %1
  call void @llvm.lifetime.start.p0(i64 8, ptr nonnull %7) #27
  invoke void @_ZN7testing7MessageC1Ev(ptr noundef nonnull align 8 dereferenceable(8) %7)
          to label %15 unwind label %52

15:                                               ; preds = %14
  call void @llvm.lifetime.start.p0(i64 8, ptr nonnull %8) #27
  %16 = getelementptr inbounds nuw i8, ptr %5, i64 8
  %17 = load ptr, ptr %16, align 8
  %.not.i.i = icmp eq ptr %17, null
  br i1 %.not.i.i, label %_ZNK7testing15AssertionResult15failure_messageEv.exit, label %18

18:                                               ; preds = %15
  %19 = load ptr, ptr %17, align 8
  br label %_ZNK7testing15AssertionResult15failure_messageEv.exit

_ZNK7testing15AssertionResult15failure_messageEv.exit: ; preds = %18, %15
  %20 = phi ptr [ %19, %18 ], [ @.str.292, %15 ]
  invoke void @_ZN7testing8internal12AssertHelperC1ENS_14TestPartResult4TypeEPKciS5_(ptr noundef nonnull align 8 dereferenceable(8) %8, i32 noundef 2, ptr noundef nonnull @.str.286, i32 noundef 1885, ptr noundef %20)
          to label %21 unwind label %54

21:                                               ; preds = %_ZNK7testing15AssertionResult15failure_messageEv.exit
  invoke void @_ZNK7testing8internal12AssertHelperaSERKNS_7MessageE(ptr noundef nonnull align 8 dereferenceable(8) %8, ptr noundef nonnull align 8 dereferenceable(8) %7)
          to label %22 unwind label %56

22:                                               ; preds = %21
  call void @_ZN7testing8internal12AssertHelperD1Ev(ptr noundef nonnull align 8 dereferenceable(8) %8) #27
  call void @llvm.lifetime.end.p0(i64 8, ptr nonnull %8) #27
  %23 = load ptr, ptr %7, align 8
  %.not.i.i.i = icmp eq ptr %23, null
  br i1 %.not.i.i.i, label %_ZN7testing7MessageD2Ev.exit, label %24

24:                                               ; preds = %22
  %25 = invoke noundef zeroext i1 @_ZN7testing8internal6IsTrueEb(i1 noundef zeroext true)
          to label %.noexc.i.i unwind label %33

.noexc.i.i:                                       ; preds = %24
  br i1 %25, label %26, label %_ZN7testing7MessageD2Ev.exit

26:                                               ; preds = %.noexc.i.i
  %27 = load ptr, ptr %7, align 8
  %28 = icmp eq ptr %27, null
  br i1 %28, label %_ZN7testing7MessageD2Ev.exit, label %29

29:                                               ; preds = %26
  %30 = load ptr, ptr %27, align 8
  %31 = getelementptr inbounds nuw i8, ptr %30, i64 8
  %32 = load ptr, ptr %31, align 8
  call void %32(ptr noundef nonnull align 8 dereferenceable(128) %27) #27
  br label %_ZN7testing7MessageD2Ev.exit

33:                                               ; preds = %24
  %34 = landingpad { ptr, i32 }
          catch ptr null
  %35 = extractvalue { ptr, i32 } %34, 0
  call void @__clang_call_terminate(ptr %35) #28
  unreachable

_ZN7testing7MessageD2Ev.exit:                     ; preds = %.noexc.i.i, %26, %29, %22
  call void @llvm.lifetime.end.p0(i64 8, ptr nonnull %7) #27
  %36 = load ptr, ptr %16, align 8
  %.not.i.i.i7 = icmp eq ptr %36, null
  br i1 %.not.i.i.i7, label %_ZN7testing15AssertionResultD2Ev.exit, label %37

37:                                               ; preds = %_ZN7testing7MessageD2Ev.exit
  %38 = invoke noundef zeroext i1 @_ZN7testing8internal6IsTrueEb(i1 noundef zeroext true)
          to label %.noexc.i.i8 unwind label %49

.noexc.i.i8:                                      ; preds = %37
  br i1 %38, label %39, label %_ZN7testing15AssertionResultD2Ev.exit

39:                                               ; preds = %.noexc.i.i8
  %40 = load ptr, ptr %16, align 8
  %41 = icmp eq ptr %40, null
  br i1 %41, label %_ZN7testing15AssertionResultD2Ev.exit, label %42

42:                                               ; preds = %39
  %43 = load ptr, ptr %40, align 8
  %44 = getelementptr inbounds nuw i8, ptr %40, i64 16
  %45 = icmp eq ptr %43, %44
  br i1 %45, label %_ZNKSt7__cxx1112basic_stringIcSt11char_traitsIcESaIcEE11_M_is_localEv.exit.thread.i.i.i.i.i, label %_ZNKSt7__cxx1112basic_stringIcSt11char_traitsIcESaIcEE11_M_is_localEv.exit.i.i.i.i.i

_ZNKSt7__cxx1112basic_stringIcSt11char_traitsIcESaIcEE11_M_is_localEv.exit.thread.i.i.i.i.i: ; preds = %42
  %46 = getelementptr inbounds nuw i8, ptr %40, i64 8
  %47 = load i64, ptr %46, align 8
  %48 = icmp ult i64 %47, 16
  call void @llvm.assume(i1 %48)
  br label %_ZNSt7__cxx1112basic_stringIcSt11char_traitsIcESaIcEED2Ev.exit.i.i.i

_ZNKSt7__cxx1112basic_stringIcSt11char_traitsIcESaIcEE11_M_is_localEv.exit.i.i.i.i.i: ; preds = %42
  call void @_ZdlPv(ptr noundef %43) #31
  br label %_ZNSt7__cxx1112basic_stringIcSt11char_traitsIcESaIcEED2Ev.exit.i.i.i

_ZNSt7__cxx1112basic_stringIcSt11char_traitsIcESaIcEED2Ev.exit.i.i.i: ; preds = %_ZNKSt7__cxx1112basic_stringIcSt11char_traitsIcESaIcEE11_M_is_localEv.exit.i.i.i.i.i, %_ZNKSt7__cxx1112basic_stringIcSt11char_traitsIcESaIcEE11_M_is_localEv.exit.thread.i.i.i.i.i
  call void @_ZdlPv(ptr noundef nonnull %40) #31
  br label %_ZN7testing15AssertionResultD2Ev.exit

49:                                               ; preds = %37
  %50 = landingpad { ptr, i32 }
          catch ptr null
  %51 = extractvalue { ptr, i32 } %50, 0
  call void @__clang_call_terminate(ptr %51) #28
  unreachable

_ZN7testing15AssertionResultD2Ev.exit:            ; preds = %.noexc.i.i8, %39, %_ZNSt7__cxx1112basic_stringIcSt11char_traitsIcESaIcEED2Ev.exit.i.i.i, %_ZN7testing7MessageD2Ev.exit
  call void @llvm.lifetime.end.p0(i64 16, ptr nonnull %5) #27
  br label %79

52:                                               ; preds = %14
  %53 = landingpad { ptr, i32 }
          cleanup
  br label %59

54:                                               ; preds = %_ZNK7testing15AssertionResult15failure_messageEv.exit
  %55 = landingpad { ptr, i32 }
          cleanup
  br label %58

56:                                               ; preds = %21
  %57 = landingpad { ptr, i32 }
          cleanup
  call void @_ZN7testing8internal12AssertHelperD1Ev(ptr noundef nonnull align 8 dereferenceable(8) %8) #27
  br label %58

58:                                               ; preds = %56, %54
  %.pn = phi { ptr, i32 } [ %57, %56 ], [ %55, %54 ]
  call void @llvm.lifetime.end.p0(i64 8, ptr nonnull %8) #27
  call void @_ZN7testing7MessageD2Ev(ptr noundef nonnull align 8 dereferenceable(8) %7) #27
  br label %59

59:                                               ; preds = %58, %52
  %.pn.pn = phi { ptr, i32 } [ %.pn, %58 ], [ %53, %52 ]
  call void @llvm.lifetime.end.p0(i64 8, ptr nonnull %7) #27
  call void @_ZN7testing15AssertionResultD2Ev(ptr noundef nonnull align 8 dereferenceable(16) %5) #27
  call void @llvm.lifetime.end.p0(i64 16, ptr nonnull %5) #27
  call void @llvm.lifetime.end.p0(i64 4, ptr nonnull %4) #27
  call void @llvm.lifetime.end.p0(i64 8, ptr nonnull %3) #27
  call void @llvm.lifetime.end.p0(i64 8, ptr nonnull %2) #27
  resume { ptr, i32 } %.pn.pn

.critedge:                                        ; preds = %1
  %60 = getelementptr inbounds nuw i8, ptr %5, i64 8
  %61 = load ptr, ptr %60, align 8
  %.not.i.i.i9 = icmp eq ptr %61, null
  br i1 %.not.i.i.i9, label %77, label %62

62:                                               ; preds = %.critedge
  %63 = invoke noundef zeroext i1 @_ZN7testing8internal6IsTrueEb(i1 noundef zeroext true)
          to label %.noexc.i.i10 unwind label %74

.noexc.i.i10:                                     ; preds = %62
  br i1 %63, label %64, label %77

64:                                               ; preds = %.noexc.i.i10
  %65 = load ptr, ptr %60, align 8
  %66 = icmp eq ptr %65, null
  br i1 %66, label %77, label %67

67:                                               ; preds = %64
  %68 = load ptr, ptr %65, align 8
  %69 = getelementptr inbounds nuw i8, ptr %65, i64 16
  %70 = icmp eq ptr %68, %69
  br i1 %70, label %_ZNKSt7__cxx1112basic_stringIcSt11char_traitsIcESaIcEE11_M_is_localEv.exit.thread.i.i.i.i.i13, label %_ZNKSt7__cxx1112basic_stringIcSt11char_traitsIcESaIcEE11_M_is_localEv.exit.i.i.i.i.i11

_ZNKSt7__cxx1112basic_stringIcSt11char_traitsIcESaIcEE11_M_is_localEv.exit.thread.i.i.i.i.i13: ; preds = %67
  %71 = getelementptr inbounds nuw i8, ptr %65, i64 8
  %72 = load i64, ptr %71, align 8
  %73 = icmp ult i64 %72, 16
  call void @llvm.assume(i1 %73)
  br label %_ZNSt7__cxx1112basic_stringIcSt11char_traitsIcESaIcEED2Ev.exit.i.i.i12

_ZNKSt7__cxx1112basic_stringIcSt11char_traitsIcESaIcEE11_M_is_localEv.exit.i.i.i.i.i11: ; preds = %67
  call void @_ZdlPv(ptr noundef %68) #31
  br label %_ZNSt7__cxx1112basic_stringIcSt11char_traitsIcESaIcEED2Ev.exit.i.i.i12

_ZNSt7__cxx1112basic_stringIcSt11char_traitsIcESaIcEED2Ev.exit.i.i.i12: ; preds = %_ZNKSt7__cxx1112basic_stringIcSt11char_traitsIcESaIcEE11_M_is_localEv.exit.i.i.i.i.i11, %_ZNKSt7__cxx1112basic_stringIcSt11char_traitsIcESaIcEE11_M_is_localEv.exit.thread.i.i.i.i.i13
  call void @_ZdlPv(ptr noundef nonnull %65) #31
  br label %77

74:                                               ; preds = %62
  %75 = landingpad { ptr, i32 }
          catch ptr null
  %76 = extractvalue { ptr, i32 } %75, 0
  call void @__clang_call_terminate(ptr %76) #28
  unreachable

77:                                               ; preds = %.noexc.i.i10, %64, %_ZNSt7__cxx1112basic_stringIcSt11char_traitsIcESaIcEED2Ev.exit.i.i.i12, %.critedge
  call void @llvm.lifetime.end.p0(i64 16, ptr nonnull %5) #27
  %78 = load ptr, ptr %2, align 8
  call void @free(ptr noundef %78) #27
  br label %79

79:                                               ; preds = %_ZN7testing15AssertionResultD2Ev.exit, %77
  call void @llvm.lifetime.end.p0(i64 4, ptr nonnull %4) #27
  call void @llvm.lifetime.end.p0(i64 8, ptr nonnull %3) #27
  call void @llvm.lifetime.end.p0(i64 8, ptr nonnull %2) #27
  ret void
}